; ModuleID = '27/1381.c'
source_filename = "27/1381.c"
target datalayout = "e-m:e-p270:32:32-p271:32:32-p272:64:64-i64:64-f80:128-n8:16:32:64-S128"
target triple = "x86_64-pc-linux-gnu"

@.str = private unnamed_addr constant [3 x i8] c"%d\00", align 1
@.str.1 = private unnamed_addr constant [7 x i8] c"%f%f%f\00", align 1
@.str.2 = private unnamed_addr constant [13 x i8] c"x1=x2=%.5lf\0A\00", align 1
@.str.3 = private unnamed_addr constant [19 x i8] c"x1=%.5lf;x2=%.5lf\0A\00", align 1
@.str.4 = private unnamed_addr constant [17 x i8] c"x1=%.5lf+%.5lfi;\00", align 1
@.str.5 = private unnamed_addr constant [17 x i8] c"x2=%.5lf-%.5lfi\0A\00", align 1

; Function Attrs: noinline nounwind uwtable
define dso_local i32 @main() #0 {
  %1 = alloca i32, align 4
  %2 = alloca i32, align 4
  %3 = alloca i32, align 4
  %4 = alloca [100 x float], align 16
  %5 = alloca [100 x float], align 16
  %6 = alloca [100 x float], align 16
  %7 = alloca double, align 8
  %8 = alloca double, align 8
  %9 = alloca double, align 8
  %10 = alloca double, align 8
  %11 = alloca double, align 8
  store i32 0, i32* %1, align 4
  %12 = call i32 (i8*, ...) @__isoc99_scanf(i8* getelementptr inbounds ([3 x i8], [3 x i8]* @.str, i64 0, i64 0), i32* %2)
  store i32 0, i32* %3, align 4
  br label %13

13:                                               ; preds = %28, %0
  %14 = load i32, i32* %3, align 4
  %15 = load i32, i32* %2, align 4
  %16 = icmp slt i32 %14, %15
  br i1 %16, label %17, label %31

17:                                               ; preds = %13
  %18 = load i32, i32* %3, align 4
  %19 = sext i32 %18 to i64
  %20 = getelementptr inbounds [100 x float], [100 x float]* %4, i64 0, i64 %19
  %21 = load i32, i32* %3, align 4
  %22 = sext i32 %21 to i64
  %23 = getelementptr inbounds [100 x float], [100 x float]* %5, i64 0, i64 %22
  %24 = load i32, i32* %3, align 4
  %25 = sext i32 %24 to i64
  %26 = getelementptr inbounds [100 x float], [100 x float]* %6, i64 0, i64 %25
  %27 = call i32 (i8*, ...) @__isoc99_scanf(i8* getelementptr inbounds ([7 x i8], [7 x i8]* @.str.1, i64 0, i64 0), float* %20, float* %23, float* %26)
  br label %28

28:                                               ; preds = %17
  %29 = load i32, i32* %3, align 4
  %30 = add nsw i32 %29, 1
  store i32 %30, i32* %3, align 4
  br label %13

31:                                               ; preds = %13
  store i32 0, i32* %3, align 4
  br label %32

32:                                               ; preds = %139, %31
  %33 = load i32, i32* %3, align 4
  %34 = load i32, i32* %2, align 4
  %35 = icmp slt i32 %33, %34
  br i1 %35, label %36, label %142

36:                                               ; preds = %32
  %37 = load i32, i32* %3, align 4
  %38 = sext i32 %37 to i64
  %39 = getelementptr inbounds [100 x float], [100 x float]* %4, i64 0, i64 %38
  %40 = load float, float* %39, align 4
  %41 = fcmp une float %40, 0.000000e+00
  br i1 %41, label %42, label %138

42:                                               ; preds = %36
  %43 = load i32, i32* %3, align 4
  %44 = sext i32 %43 to i64
  %45 = getelementptr inbounds [100 x float], [100 x float]* %5, i64 0, i64 %44
  %46 = load float, float* %45, align 4
  %47 = load i32, i32* %3, align 4
  %48 = sext i32 %47 to i64
  %49 = getelementptr inbounds [100 x float], [100 x float]* %5, i64 0, i64 %48
  %50 = load float, float* %49, align 4
  %51 = fmul float %46, %50
  %52 = load i32, i32* %3, align 4
  %53 = sext i32 %52 to i64
  %54 = getelementptr inbounds [100 x float], [100 x float]* %4, i64 0, i64 %53
  %55 = load float, float* %54, align 4
  %56 = fmul float 4.000000e+00, %55
  %57 = load i32, i32* %3, align 4
  %58 = sext i32 %57 to i64
  %59 = getelementptr inbounds [100 x float], [100 x float]* %6, i64 0, i64 %58
  %60 = load float, float* %59, align 4
  %61 = fmul float %56, %60
  %62 = fsub float %51, %61
  %63 = fpext float %62 to double
  store double %63, double* %7, align 8
  %64 = load i32, i32* %3, align 4
  %65 = sext i32 %64 to i64
  %66 = getelementptr inbounds [100 x float], [100 x float]* %5, i64 0, i64 %65
  %67 = load float, float* %66, align 4
  %68 = fcmp oeq float %67, 0.000000e+00
  br i1 %68, label %69, label %70

69:                                               ; preds = %42
  store double 0.000000e+00, double* %8, align 8
  br label %83

70:                                               ; preds = %42
  %71 = load i32, i32* %3, align 4
  %72 = sext i32 %71 to i64
  %73 = getelementptr inbounds [100 x float], [100 x float]* %5, i64 0, i64 %72
  %74 = load float, float* %73, align 4
  %75 = load i32, i32* %3, align 4
  %76 = sext i32 %75 to i64
  %77 = getelementptr inbounds [100 x float], [100 x float]* %4, i64 0, i64 %76
  %78 = load float, float* %77, align 4
  %79 = fmul float 2.000000e+00, %78
  %80 = fdiv float %74, %79
  %81 = fneg float %80
  %82 = fpext float %81 to double
  store double %82, double* %8, align 8
  br label %83

83:                                               ; preds = %70, %69
  %84 = load double, double* %7, align 8
  %85 = call double @llvm.fabs.f64(double %84)
  %86 = call double @sqrt(double %85) #4
  %87 = load i32, i32* %3, align 4
  %88 = sext i32 %87 to i64
  %89 = getelementptr inbounds [100 x float], [100 x float]* %4, i64 0, i64 %88
  %90 = load float, float* %89, align 4
  %91 = fmul float 2.000000e+00, %90
  %92 = fpext float %91 to double
  %93 = fdiv double %86, %92
  store double %93, double* %9, align 8
  %94 = load double, double* %7, align 8
  %95 = fcmp oeq double %94, 0.000000e+00
  br i1 %95, label %96, label %99

96:                                               ; preds = %83
  %97 = load double, double* %8, align 8
  %98 = call i32 (i8*, ...) @printf(i8* getelementptr inbounds ([13 x i8], [13 x i8]* @.str.2, i64 0, i64 0), double %97)
  br label %137

99:                                               ; preds = %83
  %100 = load double, double* %7, align 8
  %101 = fcmp ogt double %100, 0.000000e+00
  br i1 %101, label %102, label %112

102:                                              ; preds = %99
  %103 = load double, double* %8, align 8
  %104 = load double, double* %9, align 8
  %105 = fadd double %103, %104
  store double %105, double* %10, align 8
  %106 = load double, double* %8, align 8
  %107 = load double, double* %9, align 8
  %108 = fsub double %106, %107
  store double %108, double* %11, align 8
  %109 = load double, double* %10, align 8
  %110 = load double, double* %11, align 8
  %111 = call i32 (i8*, ...) @printf(i8* getelementptr inbounds ([19 x i8], [19 x i8]* @.str.3, i64 0, i64 0), double %109, double %110)
  br label %136

112:                                              ; preds = %99
  %113 = load double, double* %7, align 8
  %114 = fcmp olt double %113, 0.000000e+00
  br i1 %114, label %115, label %128

115:                                              ; preds = %112
  %116 = load i32, i32* %3, align 4
  %117 = sext i32 %116 to i64
  %118 = getelementptr inbounds [100 x float], [100 x float]* %5, i64 0, i64 %117
  %119 = load float, float* %118, align 4
  %120 = fcmp oeq float %119, 0.000000e+00
  br i1 %120, label %121, label %128

121:                                              ; preds = %115
  store double -0.000000e+00, double* %8, align 8
  %122 = load double, double* %8, align 8
  %123 = load double, double* %9, align 8
  %124 = call i32 (i8*, ...) @printf(i8* getelementptr inbounds ([17 x i8], [17 x i8]* @.str.4, i64 0, i64 0), double %122, double %123)
  %125 = load double, double* %8, align 8
  %126 = load double, double* %9, align 8
  %127 = call i32 (i8*, ...) @printf(i8* getelementptr inbounds ([17 x i8], [17 x i8]* @.str.5, i64 0, i64 0), double %125, double %126)
  br label %135

128:                                              ; preds = %115, %112
  %129 = load double, double* %8, align 8
  %130 = load double, double* %9, align 8
  %131 = call i32 (i8*, ...) @printf(i8* getelementptr inbounds ([17 x i8], [17 x i8]* @.str.4, i64 0, i64 0), double %129, double %130)
  %132 = load double, double* %8, align 8
  %133 = load double, double* %9, align 8
  %134 = call i32 (i8*, ...) @printf(i8* getelementptr inbounds ([17 x i8], [17 x i8]* @.str.5, i64 0, i64 0), double %132, double %133)
  br label %135

135:                                              ; preds = %128, %121
  br label %136

136:                                              ; preds = %135, %102
  br label %137

137:                                              ; preds = %136, %96
  br label %138

138:                                              ; preds = %137, %36
  br label %139

139:                                              ; preds = %138
  %140 = load i32, i32* %3, align 4
  %141 = add nsw i32 %140, 1
  store i32 %141, i32* %3, align 4
  br label %32

142:                                              ; preds = %32
  ret i32 0
}

declare dso_local i32 @__isoc99_scanf(i8*, ...) #1

; Function Attrs: nounwind
declare dso_local double @sqrt(double) #2

; Function Attrs: nounwind readnone speculatable willreturn
declare double @llvm.fabs.f64(double) #3

declare dso_local i32 @printf(i8*, ...) #1


!llvm.module.flags = !{!0}
!llvm.ident = !{!1}

!0 = !{i32 1, !"wchar_size", i32 4}
!1 = !{!"clang version 10.0.0-4ubuntu1 "}
